Certificate:
    Data:
        Version: 3 (0x2)
        Serial Number: 4 (0x4)
        Signature Algorithm: md5WithRSAEncryption
        Issuer: C=US, ST=GA, L=ATL, O=GT, O=CoC, OU=SCS, CN=SDFS-CA
        Validity
            Not Before: Apr 23 20:39:59 2012 GMT
            Not After : Apr 23 20:39:59 2013 GMT
        Subject: C=US, ST=GA, L=ATL, O=GT, O=CoC, OU=SCS, CN=Delegate
        Subject Public Key Info:
            Public Key Algorithm: rsaEncryption
            RSA Public Key: (1024 bit)
                Modulus (1024 bit):
                    00:a4:3f:6a:78:16:b4:d1:70:e8:6a:35:ef:32:b3:
                    65:31:3b:c7:bd:be:49:b4:5a:95:74:f9:a5:9d:7f:
                    b0:9a:3c:32:02:e0:c8:5d:31:57:81:d6:c6:48:4f:
                    1e:33:e8:0f:53:d2:9f:7e:6b:4c:b0:c7:01:eb:0d:
                    d9:b1:b0:c1:bf:31:5a:ee:ff:2a:d0:a4:2d:03:58:
                    ae:0f:b8:df:89:f0:d9:f0:63:88:fa:71:88:9f:33:
                    0a:c8:61:a4:52:cb:10:8d:9d:38:ea:14:7d:79:71:
                    6f:d3:14:90:fe:25:69:92:3c:cd:4b:d5:5d:5d:6a:
                    fd:8c:47:3f:97:b7:2f:4e:bb
                Exponent: 65537 (0x10001)
        X509v3 extensions:
            X509v3 Basic Constraints: 
                CA:FALSE
            Netscape Comment: 
                OpenSSL Generated Certificate
            X509v3 Subject Key Identifier: 
                78:17:EB:7A:AF:E0:8A:90:0A:F6:53:1F:5C:64:9E:6E:F5:A5:F7:6D
            X509v3 Authority Key Identifier: 
                keyid:14:1C:A9:DA:13:DF:7E:90:31:F6:1B:41:0F:32:A6:58:31:6B:B4:D8
                DirName:/C=US/ST=GA/L=ATL/O=GT/O=CoC/OU=SCS/CN=SDFS-CA
                serial:AD:3E:38:8B:F4:93:E1:F1

    Signature Algorithm: md5WithRSAEncryption
        85:b2:0f:7f:2b:f7:3c:c2:35:12:34:2d:d3:0c:28:0f:f9:a3:
        72:14:b1:b8:94:3e:be:31:9e:6b:22:b3:ad:ff:86:36:12:48:
        40:60:59:39:20:f3:cb:6b:c3:62:3a:96:0c:66:82:79:a0:a4:
        44:b1:7e:98:fa:e6:20:36:eb:af:f8:80:93:c7:50:db:4c:3d:
        ea:dd:c1:6b:a7:c9:bf:9f:fd:85:e7:55:0b:35:8a:19:7b:bd:
        5c:cb:9d:e6:70:c8:30:fc:ae:57:9f:4d:d2:76:9a:4c:e8:0f:
        14:06:8b:28:14:eb:4d:8e:b4:ed:45:51:94:c7:88:26:90:96:
        dc:c9
-----BEGIN CERTIFICATE-----
MIIDMTCCApqgAwIBAgIBBDANBgkqhkiG9w0BAQQFADBjMQswCQYDVQQGEwJVUzEL
MAkGA1UECBMCR0ExDDAKBgNVBAcTA0FUTDELMAkGA1UEChMCR1QxDDAKBgNVBAoT
A0NvQzEMMAoGA1UECxMDU0NTMRAwDgYDVQQDEwdTREZTLUNBMB4XDTEyMDQyMzIw
Mzk1OVoXDTEzMDQyMzIwMzk1OVowZDELMAkGA1UEBhMCVVMxCzAJBgNVBAgTAkdB
MQwwCgYDVQQHEwNBVEwxCzAJBgNVBAoTAkdUMQwwCgYDVQQKEwNDb0MxDDAKBgNV
BAsTA1NDUzERMA8GA1UEAxMIRGVsZWdhdGUwgZ8wDQYJKoZIhvcNAQEBBQADgY0A
MIGJAoGBAKQ/angWtNFw6Go17zKzZTE7x72+SbRalXT5pZ1/sJo8MgLgyF0xV4HW
xkhPHjPoD1PSn35rTLDHAesN2bGwwb8xWu7/KtCkLQNYrg+434nw2fBjiPpxiJ8z
CshhpFLLEI2dOOoUfXlxb9MUkP4laZI8zUvVXV1q/YxHP5e3L067AgMBAAGjgfMw
gfAwCQYDVR0TBAIwADAsBglghkgBhvhCAQ0EHxYdT3BlblNTTCBHZW5lcmF0ZWQg
Q2VydGlmaWNhdGUwHQYDVR0OBBYEFHgX63qv4IqQCvZTH1xknm71pfdtMIGVBgNV
HSMEgY0wgYqAFBQcqdoT336QMfYbQQ8yplgxa7TYoWekZTBjMQswCQYDVQQGEwJV
UzELMAkGA1UECBMCR0ExDDAKBgNVBAcTA0FUTDELMAkGA1UEChMCR1QxDDAKBgNV
BAoTA0NvQzEMMAoGA1UECxMDU0NTMRAwDgYDVQQDEwdTREZTLUNBggkArT44i/ST
4fEwDQYJKoZIhvcNAQEEBQADgYEAhbIPfyv3PMI1EjQt0wwoD/mjchSxuJQ+vjGe
ayKzrf+GNhJIQGBZOSDzy2vDYjqWDGaCeaCkRLF+mPrmIDbrr/iAk8dQ20w96t3B
a6fJv5/9hedVCzWKGXu9XMud5nDIMPyuV59N0naaTOgPFAaLKBTrTY607UVRlMeI
JpCW3Mk=
-----END CERTIFICATE-----
