Certificate:
    Data:
        Version: 3 (0x2)
        Serial Number: 2 (0x2)
        Signature Algorithm: md5WithRSAEncryption
        Issuer: C=US, ST=GA, L=ATL, O=GT, O=CoC, OU=SCS, CN=SDFS-CA
        Validity
            Not Before: Apr 21 22:44:18 2012 GMT
            Not After : Apr 21 22:44:18 2013 GMT
        Subject: C=US, ST=GA, L=ATL, O=GT, O=CoC, OU=SCS, CN=Rohan
        Subject Public Key Info:
            Public Key Algorithm: rsaEncryption
            RSA Public Key: (1024 bit)
                Modulus (1024 bit):
                    00:b4:fb:b2:a6:bc:ee:f1:79:67:e3:18:a9:4c:b4:
                    65:82:47:15:02:d2:2b:eb:15:1c:14:6f:80:79:28:
                    78:d5:19:0b:1a:c3:30:aa:b6:16:64:25:22:2c:6f:
                    9b:f5:08:28:52:53:a7:b3:8b:a9:c5:9c:ac:62:d5:
                    7d:27:8c:84:bd:09:32:66:5f:54:cf:86:1a:cd:eb:
                    9f:37:74:2d:58:bf:48:8b:e0:a7:a4:c9:24:d7:48:
                    2f:02:a9:06:e9:a7:30:e7:37:2d:9e:64:0f:93:13:
                    5e:f3:ec:e7:f2:a5:39:b4:fe:04:70:00:fa:71:c0:
                    40:9a:c1:74:cb:2f:e7:83:2b
                Exponent: 65537 (0x10001)
        X509v3 extensions:
            X509v3 Basic Constraints: 
                CA:FALSE
            Netscape Comment: 
                OpenSSL Generated Certificate
            X509v3 Subject Key Identifier: 
                4E:EA:9D:5E:CC:73:3E:E4:17:F4:E8:EA:75:45:BC:FF:F5:12:AD:9C
            X509v3 Authority Key Identifier: 
                keyid:14:1C:A9:DA:13:DF:7E:90:31:F6:1B:41:0F:32:A6:58:31:6B:B4:D8
                DirName:/C=US/ST=GA/L=ATL/O=GT/O=CoC/OU=SCS/CN=SDFS-CA
                serial:AD:3E:38:8B:F4:93:E1:F1

    Signature Algorithm: md5WithRSAEncryption
        d1:8a:f3:bc:27:ea:c7:99:1f:ac:0a:48:87:63:8a:c4:93:a8:
        bd:22:e4:43:a2:73:fa:29:bf:d5:6c:27:b9:bc:17:77:15:9f:
        5a:ea:66:0a:e7:f0:2f:ef:11:a6:4f:f6:2e:8d:85:50:4a:d9:
        cc:ee:32:2d:81:12:9e:0a:d2:de:ac:a1:c7:52:38:b3:8c:cb:
        91:21:69:b0:a0:2d:a3:f1:ef:c6:04:44:c4:a5:ca:02:c3:a6:
        61:2c:22:85:72:eb:fc:e8:e8:74:89:3d:b9:44:d8:df:16:6e:
        68:61:00:20:82:42:eb:5b:2a:60:90:98:04:95:c7:77:66:88:
        ef:db
-----BEGIN CERTIFICATE-----
MIIDLjCCApegAwIBAgIBAjANBgkqhkiG9w0BAQQFADBjMQswCQYDVQQGEwJVUzEL
MAkGA1UECBMCR0ExDDAKBgNVBAcTA0FUTDELMAkGA1UEChMCR1QxDDAKBgNVBAoT
A0NvQzEMMAoGA1UECxMDU0NTMRAwDgYDVQQDEwdTREZTLUNBMB4XDTEyMDQyMTIy
NDQxOFoXDTEzMDQyMTIyNDQxOFowYTELMAkGA1UEBhMCVVMxCzAJBgNVBAgTAkdB
MQwwCgYDVQQHEwNBVEwxCzAJBgNVBAoTAkdUMQwwCgYDVQQKEwNDb0MxDDAKBgNV
BAsTA1NDUzEOMAwGA1UEAxMFUm9oYW4wgZ8wDQYJKoZIhvcNAQEBBQADgY0AMIGJ
AoGBALT7sqa87vF5Z+MYqUy0ZYJHFQLSK+sVHBRvgHkoeNUZCxrDMKq2FmQlIixv
m/UIKFJTp7OLqcWcrGLVfSeMhL0JMmZfVM+GGs3rnzd0LVi/SIvgp6TJJNdILwKp
BumnMOc3LZ5kD5MTXvPs5/KlObT+BHAA+nHAQJrBdMsv54MrAgMBAAGjgfMwgfAw
CQYDVR0TBAIwADAsBglghkgBhvhCAQ0EHxYdT3BlblNTTCBHZW5lcmF0ZWQgQ2Vy
dGlmaWNhdGUwHQYDVR0OBBYEFE7qnV7Mcz7kF/To6nVFvP/1Eq2cMIGVBgNVHSME
gY0wgYqAFBQcqdoT336QMfYbQQ8yplgxa7TYoWekZTBjMQswCQYDVQQGEwJVUzEL
MAkGA1UECBMCR0ExDDAKBgNVBAcTA0FUTDELMAkGA1UEChMCR1QxDDAKBgNVBAoT
A0NvQzEMMAoGA1UECxMDU0NTMRAwDgYDVQQDEwdTREZTLUNBggkArT44i/ST4fEw
DQYJKoZIhvcNAQEEBQADgYEA0YrzvCfqx5kfrApIh2OKxJOovSLkQ6Jz+im/1Wwn
ubwXdxWfWupmCufwL+8Rpk/2Lo2FUErZzO4yLYESngrS3qyhx1I4s4zLkSFpsKAt
o/HvxgRExKXKAsOmYSwihXLr/OjodIk9uUTY3xZuaGEAIIJC61sqYJCYBJXHd2aI
79s=
-----END CERTIFICATE-----
