Certificate:
    Data:
        Version: 3 (0x2)
        Serial Number: 3 (0x3)
        Signature Algorithm: md5WithRSAEncryption
        Issuer: C=US, ST=GA, L=ATL, O=GT, O=CoC, OU=SCS, CN=SDFS-CA
        Validity
            Not Before: Apr 21 22:44:55 2012 GMT
            Not After : Apr 21 22:44:55 2013 GMT
        Subject: C=US, ST=GA, L=ATL, O=GT, O=CoC, OU=SCS, CN=Revoke
        Subject Public Key Info:
            Public Key Algorithm: rsaEncryption
            RSA Public Key: (1024 bit)
                Modulus (1024 bit):
                    00:ac:24:27:c9:13:cb:ef:bc:52:9b:80:95:d7:79:
                    cf:8e:2f:f0:a8:22:b6:62:5d:2c:44:fd:84:72:42:
                    93:64:2e:1f:94:f6:32:bd:e0:33:90:09:ea:84:4e:
                    3a:c9:1d:e6:11:df:29:a4:7a:3c:99:f7:30:09:84:
                    e1:60:0f:5a:cf:78:9d:90:1d:79:a1:4c:b7:26:d9:
                    60:a8:eb:03:ea:95:54:30:22:df:be:86:9c:5e:e1:
                    46:42:31:58:82:d7:77:53:47:a3:e0:9b:c6:2a:5a:
                    b6:f0:62:20:e8:74:b8:01:c7:71:57:d0:bc:c9:81:
                    d8:36:71:15:d8:10:4e:fb:15
                Exponent: 65537 (0x10001)
        X509v3 extensions:
            X509v3 Basic Constraints: 
                CA:FALSE
            Netscape Comment: 
                OpenSSL Generated Certificate
            X509v3 Subject Key Identifier: 
                2A:C8:87:FC:D1:1B:7F:BB:2C:96:B4:77:57:8C:BB:19:83:E6:BE:BB
            X509v3 Authority Key Identifier: 
                keyid:14:1C:A9:DA:13:DF:7E:90:31:F6:1B:41:0F:32:A6:58:31:6B:B4:D8
                DirName:/C=US/ST=GA/L=ATL/O=GT/O=CoC/OU=SCS/CN=SDFS-CA
                serial:AD:3E:38:8B:F4:93:E1:F1

    Signature Algorithm: md5WithRSAEncryption
        b5:f7:55:7e:ea:fe:10:e3:54:c7:2d:25:11:50:dc:8e:75:9c:
        04:b4:7b:72:2c:b8:1e:90:9f:02:10:08:2f:32:24:78:2f:00:
        82:34:cb:95:ab:b9:4e:c7:bd:5a:33:9d:72:11:e0:c2:f0:7c:
        99:2a:47:d5:dd:f8:1f:1f:6e:78:f9:19:c8:0a:6e:19:62:3f:
        c5:6a:c4:ba:06:01:05:eb:a6:3d:78:b5:42:aa:6f:f8:7f:90:
        18:a6:f1:7c:6c:ee:85:59:5b:1d:9d:b1:f0:d7:9e:ee:ed:08:
        17:25:1c:dd:ba:9b:8e:a7:07:24:fb:4e:6f:7c:13:b3:c9:97:
        01:85
-----BEGIN CERTIFICATE-----
MIIDLzCCApigAwIBAgIBAzANBgkqhkiG9w0BAQQFADBjMQswCQYDVQQGEwJVUzEL
MAkGA1UECBMCR0ExDDAKBgNVBAcTA0FUTDELMAkGA1UEChMCR1QxDDAKBgNVBAoT
A0NvQzEMMAoGA1UECxMDU0NTMRAwDgYDVQQDEwdTREZTLUNBMB4XDTEyMDQyMTIy
NDQ1NVoXDTEzMDQyMTIyNDQ1NVowYjELMAkGA1UEBhMCVVMxCzAJBgNVBAgTAkdB
MQwwCgYDVQQHEwNBVEwxCzAJBgNVBAoTAkdUMQwwCgYDVQQKEwNDb0MxDDAKBgNV
BAsTA1NDUzEPMA0GA1UEAxMGUmV2b2tlMIGfMA0GCSqGSIb3DQEBAQUAA4GNADCB
iQKBgQCsJCfJE8vvvFKbgJXXec+OL/CoIrZiXSxE/YRyQpNkLh+U9jK94DOQCeqE
TjrJHeYR3ymkejyZ9zAJhOFgD1rPeJ2QHXmhTLcm2WCo6wPqlVQwIt++hpxe4UZC
MViC13dTR6Pgm8YqWrbwYiDodLgBx3FX0LzJgdg2cRXYEE77FQIDAQABo4HzMIHw
MAkGA1UdEwQCMAAwLAYJYIZIAYb4QgENBB8WHU9wZW5TU0wgR2VuZXJhdGVkIENl
cnRpZmljYXRlMB0GA1UdDgQWBBQqyIf80Rt/uyyWtHdXjLsZg+a+uzCBlQYDVR0j
BIGNMIGKgBQUHKnaE99+kDH2G0EPMqZYMWu02KFnpGUwYzELMAkGA1UEBhMCVVMx
CzAJBgNVBAgTAkdBMQwwCgYDVQQHEwNBVEwxCzAJBgNVBAoTAkdUMQwwCgYDVQQK
EwNDb0MxDDAKBgNVBAsTA1NDUzEQMA4GA1UEAxMHU0RGUy1DQYIJAK0+OIv0k+Hx
MA0GCSqGSIb3DQEBBAUAA4GBALX3VX7q/hDjVMctJRFQ3I51nAS0e3IsuB6QnwIQ
CC8yJHgvAII0y5WruU7HvVoznXIR4MLwfJkqR9Xd+B8fbnj5GcgKbhliP8VqxLoG
AQXrpj14tUKqb/h/kBim8Xxs7oVZWx2dsfDXnu7tCBclHN26m46nByT7Tm98E7PJ
lwGF
-----END CERTIFICATE-----
