Certificate:
    Data:
        Version: 3 (0x2)
        Serial Number: 1 (0x1)
        Signature Algorithm: md5WithRSAEncryption
        Issuer: C=US, ST=GA, L=ATL, O=GT, O=CoC, OU=SCS, CN=SDFS-CA
        Validity
            Not Before: Apr 21 22:43:27 2012 GMT
            Not After : Apr 21 22:43:27 2013 GMT
        Subject: C=US, ST=GA, L=ATL, O=GT, O=CoC, OU=SCS, CN=localhost
        Subject Public Key Info:
            Public Key Algorithm: rsaEncryption
            RSA Public Key: (1024 bit)
                Modulus (1024 bit):
                    00:c2:98:a7:8d:9a:59:f8:3d:20:51:c4:96:bd:72:
                    ee:f6:39:4e:b8:c3:4c:17:a6:b7:6e:23:28:b9:88:
                    42:df:c1:ec:ba:1b:5f:26:e1:25:a3:6a:0d:b2:ef:
                    3b:87:f0:1a:9a:72:f0:df:cf:c2:36:04:5c:72:81:
                    b4:9c:e1:77:db:5a:bd:68:db:dc:61:c5:a2:9c:f6:
                    6d:cf:ab:44:4e:8d:c9:0d:de:96:7b:69:bc:7e:0d:
                    f8:53:c7:f7:d8:99:62:a5:6b:7f:3a:d2:08:a7:30:
                    51:fe:d3:d1:e2:f8:67:f5:fd:ec:f0:8c:c3:95:85:
                    ff:89:bb:ff:89:b6:95:19:5d
                Exponent: 65537 (0x10001)
        X509v3 extensions:
            X509v3 Basic Constraints: 
                CA:FALSE
            Netscape Comment: 
                OpenSSL Generated Certificate
            X509v3 Subject Key Identifier: 
                55:28:0F:60:71:A4:B6:20:95:BB:CA:DE:84:36:DC:02:B8:83:53:CA
            X509v3 Authority Key Identifier: 
                keyid:14:1C:A9:DA:13:DF:7E:90:31:F6:1B:41:0F:32:A6:58:31:6B:B4:D8
                DirName:/C=US/ST=GA/L=ATL/O=GT/O=CoC/OU=SCS/CN=SDFS-CA
                serial:AD:3E:38:8B:F4:93:E1:F1

    Signature Algorithm: md5WithRSAEncryption
        2a:34:8e:c8:a9:d4:b1:06:16:61:e1:e1:d2:41:ab:86:fc:46:
        c9:40:33:d0:42:be:e1:3a:cb:75:cc:3e:b2:b6:35:6d:78:74:
        e4:19:01:c4:8d:81:2b:16:6a:08:d9:7a:27:31:b0:fa:a9:71:
        83:b8:9d:e5:bb:08:94:9f:22:de:d7:79:99:e4:2b:09:5e:f3:
        66:83:c4:34:76:1c:f1:25:66:f9:6a:56:91:d9:98:39:d3:d1:
        40:63:ab:70:73:e8:b3:58:55:63:4e:52:ea:2c:e3:7a:80:b0:
        89:2c:68:41:1b:4a:92:2b:2c:6e:27:06:41:3e:19:85:e6:5d:
        66:95
-----BEGIN CERTIFICATE-----
MIIDMjCCApugAwIBAgIBATANBgkqhkiG9w0BAQQFADBjMQswCQYDVQQGEwJVUzEL
MAkGA1UECBMCR0ExDDAKBgNVBAcTA0FUTDELMAkGA1UEChMCR1QxDDAKBgNVBAoT
A0NvQzEMMAoGA1UECxMDU0NTMRAwDgYDVQQDEwdTREZTLUNBMB4XDTEyMDQyMTIy
NDMyN1oXDTEzMDQyMTIyNDMyN1owZTELMAkGA1UEBhMCVVMxCzAJBgNVBAgTAkdB
MQwwCgYDVQQHEwNBVEwxCzAJBgNVBAoTAkdUMQwwCgYDVQQKEwNDb0MxDDAKBgNV
BAsTA1NDUzESMBAGA1UEAxMJbG9jYWxob3N0MIGfMA0GCSqGSIb3DQEBAQUAA4GN
ADCBiQKBgQDCmKeNmln4PSBRxJa9cu72OU64w0wXprduIyi5iELfwey6G18m4SWj
ag2y7zuH8BqacvDfz8I2BFxygbSc4XfbWr1o29xhxaKc9m3Pq0ROjckN3pZ7abx+
DfhTx/fYmWKla3860ginMFH+09Hi+Gf1/ezwjMOVhf+Ju/+JtpUZXQIDAQABo4Hz
MIHwMAkGA1UdEwQCMAAwLAYJYIZIAYb4QgENBB8WHU9wZW5TU0wgR2VuZXJhdGVk
IENlcnRpZmljYXRlMB0GA1UdDgQWBBRVKA9gcaS2IJW7yt6ENtwCuINTyjCBlQYD
VR0jBIGNMIGKgBQUHKnaE99+kDH2G0EPMqZYMWu02KFnpGUwYzELMAkGA1UEBhMC
VVMxCzAJBgNVBAgTAkdBMQwwCgYDVQQHEwNBVEwxCzAJBgNVBAoTAkdUMQwwCgYD
VQQKEwNDb0MxDDAKBgNVBAsTA1NDUzEQMA4GA1UEAxMHU0RGUy1DQYIJAK0+OIv0
k+HxMA0GCSqGSIb3DQEBBAUAA4GBACo0jsip1LEGFmHh4dJBq4b8RslAM9BCvuE6
y3XMPrK2NW14dOQZAcSNgSsWagjZeicxsPqpcYO4neW7CJSfIt7XeZnkKwle82aD
xDR2HPElZvlqVpHZmDnT0UBjq3Bz6LNYVWNOUuos43qAsIksaEEbSpIrLG4nBkE+
GYXmXWaV
-----END CERTIFICATE-----
